; Function Attrs: mustprogress nounwind uwtable
define internal void @_ZN7testing7MatcherIRKSt5tupleIJN4absl4SpanIKaEES5_NS3_IKNS2_18container_internal12_GLOBAL__N_16Int128EEEEEED2Ev(ptr nocapture noundef nonnull align 8 dereferenceable(24) %this) unnamed_addr #7 align 2 personality ptr @__gxx_personality_v0 {
entry:
  store ptr getelementptr inbounds ({ [6 x ptr] }, ptr @_ZTVN7testing8internal11MatcherBaseIRKSt5tupleIJN4absl4SpanIKaEES6_NS4_IKNS3_18container_internal12_GLOBAL__N_16Int128EEEEEEE, i64 0, i32 0, i64 2), ptr %this, align 8
  %0 = getelementptr inbounds i8, ptr %this, i64 8
  %this.val.i.i = load ptr, ptr %0, align 8
  %cmp.not.i.i.i = icmp eq ptr %this.val.i.i, null
  br i1 %cmp.not.i.i.i, label %_ZN7testing8internal11MatcherBaseIRKSt5tupleIJN4absl4SpanIKaEES6_NS4_IKNS3_18container_internal12_GLOBAL__N_16Int128EEEEEED2Ev.exit, label %_ZNK7testing8internal11MatcherBaseIRKSt5tupleIJN4absl4SpanIKaEES6_NS4_IKNS3_18container_internal12_GLOBAL__N_16Int128EEEEEE8IsSharedEv.exit.i.i

_ZNK7testing8internal11MatcherBaseIRKSt5tupleIJN4absl4SpanIKaEES6_NS4_IKNS3_18container_internal12_GLOBAL__N_16Int128EEEEEE8IsSharedEv.exit.i.i: ; preds = %entry
  %shared_destroy.i.i.i = getelementptr inbounds i8, ptr %this.val.i.i, i64 24
  %1 = load ptr, ptr %shared_destroy.i.i.i, align 8
  %cmp3.i.not.i.i = icmp eq ptr %1, null
  br i1 %cmp3.i.not.i.i, label %_ZN7testing8internal11MatcherBaseIRKSt5tupleIJN4absl4SpanIKaEES6_NS4_IKNS3_18container_internal12_GLOBAL__N_16Int128EEEEEED2Ev.exit, label %land.lhs.true.i.i

land.lhs.true.i.i:                                ; preds = %_ZNK7testing8internal11MatcherBaseIRKSt5tupleIJN4absl4SpanIKaEES6_NS4_IKNS3_18container_internal12_GLOBAL__N_16Int128EEEEEE8IsSharedEv.exit.i.i
  %buffer_.i.i = getelementptr inbounds i8, ptr %this, i64 16
  %2 = load ptr, ptr %buffer_.i.i, align 8
  %3 = atomicrmw sub ptr %2, i32 1 acq_rel, align 4
  %cmp.i.i.i = icmp eq i32 %3, 1
  br i1 %cmp.i.i.i, label %if.then.i.i, label %_ZN7testing8internal11MatcherBaseIRKSt5tupleIJN4absl4SpanIKaEES6_NS4_IKNS3_18container_internal12_GLOBAL__N_16Int128EEEEEED2Ev.exit

if.then.i.i:                                      ; preds = %land.lhs.true.i.i
  %4 = load ptr, ptr %0, align 8
  %shared_destroy.i.i = getelementptr inbounds i8, ptr %4, i64 24
  %5 = load ptr, ptr %shared_destroy.i.i, align 8
  %6 = load ptr, ptr %buffer_.i.i, align 8
  invoke void %5(ptr noundef %6)
          to label %_ZN7testing8internal11MatcherBaseIRKSt5tupleIJN4absl4SpanIKaEES6_NS4_IKNS3_18container_internal12_GLOBAL__N_16Int128EEEEEED2Ev.exit unwind label %terminate.lpad.i

terminate.lpad.i:                                 ; preds = %if.then.i.i
  %7 = landingpad { ptr, i32 }
          catch ptr null
  %8 = extractvalue { ptr, i32 } %7, 0
  tail call void @__clang_call_terminate(ptr %8) #24
  unreachable

_ZN7testing8internal11MatcherBaseIRKSt5tupleIJN4absl4SpanIKaEES6_NS4_IKNS3_18container_internal12_GLOBAL__N_16Int128EEEEEED2Ev.exit: ; preds = %entry, %_ZNK7testing8internal11MatcherBaseIRKSt5tupleIJN4absl4SpanIKaEES6_NS4_IKNS3_18container_internal12_GLOBAL__N_16Int128EEEEEE8IsSharedEv.exit.i.i, %land.lhs.true.i.i, %if.then.i.i
  ret void
}